
Allocating common symbols
Common symbol       size              file

thread_ready_list   0x10              build/thread.o
thread_all_list     0x10              build/thread.o
user_pool           0x10              build/memory.o
kernel_addr         0xc               build/memory.o
intr_name           0xc0              build/interrupt.o
main_thread         0x4               build/thread.o
ticks               0x4               build/timer.o
idt_table           0xc0              build/interrupt.o
kernel_pool         0x10              build/memory.o

Discarded input sections

 .group         0x0000000000000000        0x8 build/main.o
 .note.GNU-stack
                0x0000000000000000        0x0 build/main.o
 .group         0x0000000000000000        0x8 build/init.o
 .text.__x86.get_pc_thunk.bx
                0x0000000000000000        0x4 build/init.o
 .note.GNU-stack
                0x0000000000000000        0x0 build/init.o
 .group         0x0000000000000000        0x8 build/interrupt.o
 .group         0x0000000000000000        0x8 build/interrupt.o
 .text.__x86.get_pc_thunk.bx
                0x0000000000000000        0x4 build/interrupt.o
 .note.GNU-stack
                0x0000000000000000        0x0 build/interrupt.o
 .group         0x0000000000000000        0x8 build/timer.o
 .group         0x0000000000000000        0x8 build/timer.o
 .text.__x86.get_pc_thunk.ax
                0x0000000000000000        0x4 build/timer.o
 .text.__x86.get_pc_thunk.bx
                0x0000000000000000        0x4 build/timer.o
 .note.GNU-stack
                0x0000000000000000        0x0 build/timer.o
 .group         0x0000000000000000        0x8 build/bitmap.o
 .text.__x86.get_pc_thunk.ax
                0x0000000000000000        0x4 build/bitmap.o
 .note.GNU-stack
                0x0000000000000000        0x0 build/bitmap.o
 .group         0x0000000000000000        0x8 build/memory.o
 .group         0x0000000000000000        0x8 build/memory.o
 .text.__x86.get_pc_thunk.ax
                0x0000000000000000        0x4 build/memory.o
 .text.__x86.get_pc_thunk.bx
                0x0000000000000000        0x4 build/memory.o
 .note.GNU-stack
                0x0000000000000000        0x0 build/memory.o
 .group         0x0000000000000000        0x8 build/string.o
 .text.__x86.get_pc_thunk.ax
                0x0000000000000000        0x4 build/string.o
 .note.GNU-stack
                0x0000000000000000        0x0 build/string.o
 .group         0x0000000000000000        0x8 build/debug.o
 .text.__x86.get_pc_thunk.bx
                0x0000000000000000        0x4 build/debug.o
 .note.GNU-stack
                0x0000000000000000        0x0 build/debug.o
 .group         0x0000000000000000        0x8 build/thread.o
 .group         0x0000000000000000        0x8 build/thread.o
 .group         0x0000000000000000        0x8 build/thread.o
 .text.__x86.get_pc_thunk.ax
                0x0000000000000000        0x4 build/thread.o
 .text.__x86.get_pc_thunk.bx
                0x0000000000000000        0x4 build/thread.o
 .note.GNU-stack
                0x0000000000000000        0x0 build/thread.o
 .group         0x0000000000000000        0x8 build/list.o
 .group         0x0000000000000000        0x8 build/list.o
 .text.__x86.get_pc_thunk.ax
                0x0000000000000000        0x4 build/list.o
 .text.__x86.get_pc_thunk.bx
                0x0000000000000000        0x4 build/list.o
 .note.GNU-stack
                0x0000000000000000        0x0 build/list.o
 .group         0x0000000000000000        0x8 build/sync.o
 .group         0x0000000000000000        0x8 build/sync.o
 .text.__x86.get_pc_thunk.ax
                0x0000000000000000        0x4 build/sync.o
 .text.__x86.get_pc_thunk.bx
                0x0000000000000000        0x4 build/sync.o
 .note.GNU-stack
                0x0000000000000000        0x0 build/sync.o
 .group         0x0000000000000000        0x8 build/console.o
 .group         0x0000000000000000        0x8 build/console.o
 .text.__x86.get_pc_thunk.ax
                0x0000000000000000        0x4 build/console.o
 .text.__x86.get_pc_thunk.bx
                0x0000000000000000        0x4 build/console.o
 .note.GNU-stack
                0x0000000000000000        0x0 build/console.o
 .group         0x0000000000000000        0x8 build/keyboard.o
 .group         0x0000000000000000        0x8 build/keyboard.o
 .text.__x86.get_pc_thunk.ax
                0x0000000000000000        0x4 build/keyboard.o
 .text.__x86.get_pc_thunk.bx
                0x0000000000000000        0x4 build/keyboard.o
 .note.GNU-stack
                0x0000000000000000        0x0 build/keyboard.o

Memory Configuration

Name             Origin             Length             Attributes
*default*        0x0000000000000000 0xffffffffffffffff

Linker script and memory map

Address of section .text set to 0xc0001500
LOAD build/main.o
LOAD build/init.o
LOAD build/interrupt.o
LOAD build/timer.o
LOAD build/kernel.o
LOAD build/print.o
LOAD build/bitmap.o
LOAD build/memory.o
LOAD build/string.o
LOAD build/debug.o
LOAD build/thread.o
LOAD build/switch.o
LOAD build/list.o
LOAD build/sync.o
LOAD build/console.o
LOAD build/keyboard.o
                [!provide]                        PROVIDE (__executable_start, SEGMENT_START ("text-segment", 0x8048000))
                0x0000000008048094                . = (SEGMENT_START ("text-segment", 0x8048000) + SIZEOF_HEADERS)

.interp
 *(.interp)

.note.gnu.build-id
 *(.note.gnu.build-id)

.hash
 *(.hash)

.gnu.hash
 *(.gnu.hash)

.dynsym
 *(.dynsym)

.dynstr
 *(.dynstr)

.gnu.version
 *(.gnu.version)

.gnu.version_d
 *(.gnu.version_d)

.gnu.version_r
 *(.gnu.version_r)

.rel.dyn        0x0000000008048094        0x0
 *(.rel.init)
 *(.rel.text .rel.text.* .rel.gnu.linkonce.t.*)
 .rel.text      0x0000000008048094        0x0 build/main.o
 *(.rel.fini)
 *(.rel.rodata .rel.rodata.* .rel.gnu.linkonce.r.*)
 *(.rel.data.rel.ro .rel.data.rel.ro.* .rel.gnu.linkonce.d.rel.ro.*)
 *(.rel.data .rel.data.* .rel.gnu.linkonce.d.*)
 *(.rel.tdata .rel.tdata.* .rel.gnu.linkonce.td.*)
 *(.rel.tbss .rel.tbss.* .rel.gnu.linkonce.tb.*)
 *(.rel.ctors)
 *(.rel.dtors)
 *(.rel.got)
 .rel.got       0x0000000008048094        0x0 build/main.o
 *(.rel.bss .rel.bss.* .rel.gnu.linkonce.b.*)
 *(.rel.ifunc)

.rel.plt        0x0000000008048094        0x0
 *(.rel.plt)
                [!provide]                        PROVIDE (__rel_iplt_start, .)
 *(.rel.iplt)
                [!provide]                        PROVIDE (__rel_iplt_end, .)

.init
 *(SORT(.init))

.plt
 *(.plt)
 *(.iplt)

.plt.got        0x0000000008048098        0x0
 *(.plt.got)
 .plt.got       0x0000000008048098        0x0 build/main.o

.text           0x00000000c0001500     0x2968
 *(.text.unlikely .text.*_unlikely .text.unlikely.*)
 *(.text.exit .text.exit.*)
 *(.text.startup .text.startup.*)
 *(.text.hot .text.hot.*)
 *(.text .stub .text.* .gnu.linkonce.t.*)
 .text          0x00000000c0001500       0x38 build/main.o
                0x00000000c0001500                main
 .text.__x86.get_pc_thunk.bx
                0x00000000c0001538        0x4 build/main.o
                0x00000000c0001538                __x86.get_pc_thunk.bx
 .text          0x00000000c000153c       0x48 build/init.o
                0x00000000c000153c                init_all
 .text          0x00000000c0001584      0x552 build/interrupt.o
                0x00000000c00015ad                intr_enable
                0x00000000c00015e0                intr_disable
                0x00000000c0001612                intr_get_status
                0x00000000c0001640                intr_set_status
                0x00000000c0001a45                idt_init
                0x00000000c0001aad                register_handler
 .text.__x86.get_pc_thunk.ax
                0x00000000c0001ad6        0x4 build/interrupt.o
                0x00000000c0001ad6                __x86.get_pc_thunk.ax
 .text          0x00000000c0001ada      0x1b2 build/timer.o
                0x00000000c0001c24                timer_init
 *fill*         0x00000000c0001c8c        0x4 
 .text          0x00000000c0001c90      0x541 build/kernel.o
                0x00000000c0001c90                intr_exit
 *fill*         0x00000000c00021d1        0xf 
 .text          0x00000000c00021e0      0x14e build/print.o
                0x00000000c00021e0                put_int
                0x00000000c0002243                put_str
                0x00000000c0002261                put_char
                0x00000000c0002310                set_cursor
 .text          0x00000000c000232e      0x252 build/bitmap.o
                0x00000000c000232e                bitmap_init
                0x00000000c0002361                bitmap_scan_test
                0x00000000c00023ab                bitmap_scan
                0x00000000c00024bd                bitmap_set
 .text          0x00000000c0002580      0x5f0 build/memory.o
                0x00000000c00029fc                malloc_page
                0x00000000c0002ad2                get_kernel_pages
                0x00000000c0002b1c                mem_init
 .text          0x00000000c0002b70      0x47a build/string.o
                0x00000000c0002b70                memset
                0x00000000c0002bd8                memcpy
                0x00000000c0002c4b                memcmp
                0x00000000c0002cc3                strcpy
                0x00000000c0002d2e                strlen
                0x00000000c0002d8b                strcmp
                0x00000000c0002e1a                strchr
                0x00000000c0002e85                strrchr
                0x00000000c0002ef5                strcat
                0x00000000c0002f75                strchrs
 .text          0x00000000c0002fea       0xe0 build/debug.o
                0x00000000c0002fea                panic_spin
 .text          0x00000000c00030ca      0x60a build/thread.o
                0x00000000c0003199                running_thread
                0x00000000c00031b8                thread_create
                0x00000000c000323c                init_thread
                0x00000000c00032e1                thread_start
                0x00000000c00033dd                schedule
                0x00000000c0003519                thread_block
                0x00000000c0003591                thread_unblock
                0x00000000c000366f                thread_init
 .text.__x86.get_pc_thunk.dx
                0x00000000c00036d4        0x4 build/thread.o
                0x00000000c00036d4                __x86.get_pc_thunk.dx
 *fill*         0x00000000c00036d8        0x8 
 .text          0x00000000c00036e0       0x15 build/switch.o
                0x00000000c00036e0                switch_to
 .text          0x00000000c00036f5      0x25e build/list.o
                0x00000000c00036f5                list_init
                0x00000000c000372d                list_insert_before
                0x00000000c0003781                list_push
                0x00000000c00037a9                list_append
                0x00000000c00037d1                list_remove
                0x00000000c000381a                list_pop
                0x00000000c0003846                list_find
                0x00000000c000388b                list_empty
                0x00000000c00038ae                list_length
                0x00000000c00038ed                list_traversal
 .text          0x00000000c0003953      0x350 build/sync.o
                0x00000000c0003953                semaphore_init
                0x00000000c000398d                lock_init
                0x00000000c00039c7                semaphore_down
                0x00000000c0003aa2                semaphore_up
                0x00000000c0003b6c                lock_acquire
                0x00000000c0003bf4                lock_release
 .text          0x00000000c0003ca3      0x119 build/console.o
                0x00000000c0003ca3                console_init
                0x00000000c0003cce                console_acquire
                0x00000000c0003cf9                console_release
                0x00000000c0003d24                console_put_str
                0x00000000c0003d54                console_put_char
                0x00000000c0003d8c                console_put_int
 .text          0x00000000c0003dbc       0xac build/keyboard.o
                0x00000000c0003e18                keyboard_init
 *(.gnu.warning)

.fini
 *(SORT(.fini))
                [!provide]                        PROVIDE (__etext, .)
                [!provide]                        PROVIDE (_etext, .)
                [!provide]                        PROVIDE (etext, .)

.rodata         0x00000000c0003e68      0x952
 *(.rodata .rodata.* .gnu.linkonce.r.*)
 .rodata        0x00000000c0003e68        0xe build/main.o
 .rodata        0x00000000c0003e76        0xb build/init.o
 *fill*         0x00000000c0003e81        0x3 
 .rodata        0x00000000c0003e84      0x2b8 build/interrupt.o
 .rodata        0x00000000c000413c       0x6f build/timer.o
 *fill*         0x00000000c00041ab        0x1 
 .rodata        0x00000000c00041ac       0x33 build/bitmap.o
 *fill*         0x00000000c00041df        0x1 
 .rodata        0x00000000c00041e0      0x114 build/memory.o
 .rodata        0x00000000c00042f4       0xb4 build/string.o
 .rodata        0x00000000c00043a8       0x3c build/debug.o
 .rodata        0x00000000c00043e4      0x2a7 build/thread.o
 *fill*         0x00000000c000468b        0x1 
 .rodata        0x00000000c000468c      0x101 build/sync.o
 .rodata        0x00000000c000478d       0x2d build/keyboard.o

.rodata1
 *(.rodata1)

.eh_frame_hdr
 *(.eh_frame_hdr)
 *(.eh_frame_entry .eh_frame_entry.*)

.eh_frame       0x00000000c00047bc      0xb3c
 *(.eh_frame)
 .eh_frame      0x00000000c00047bc       0x54 build/main.o
 .eh_frame      0x00000000c0004810        0x0 build/main.o
 .eh_frame      0x00000000c0004810       0x24 build/init.o
                                         0x50 (size before relaxing)
 .eh_frame      0x00000000c0004834      0x1c8 build/interrupt.o
                                        0x1f4 (size before relaxing)
 .eh_frame      0x00000000c00049fc       0x90 build/timer.o
                                         0xd0 (size before relaxing)
 .eh_frame      0x00000000c0004a8c       0x90 build/bitmap.o
                                         0xbc (size before relaxing)
 .eh_frame      0x00000000c0004b1c      0x184 build/memory.o
                                        0x1c4 (size before relaxing)
 .eh_frame      0x00000000c0004ca0      0x168 build/string.o
                                        0x194 (size before relaxing)
 .eh_frame      0x00000000c0004e08       0x1c build/debug.o
                                         0x48 (size before relaxing)
 .eh_frame      0x00000000c0004e24      0x174 build/thread.o
                                        0x1b4 (size before relaxing)
 .eh_frame      0x00000000c0004f98      0x148 build/list.o
                                        0x188 (size before relaxing)
 .eh_frame      0x00000000c00050e0       0xd8 build/sync.o
                                        0x118 (size before relaxing)
 .eh_frame      0x00000000c00051b8       0xd8 build/console.o
                                        0x118 (size before relaxing)
 .eh_frame      0x00000000c0005290       0x68 build/keyboard.o
                                         0xa8 (size before relaxing)
 *(.eh_frame.*)

.gcc_except_table
 *(.gcc_except_table .gcc_except_table.*)

.gnu_extab
 *(.gnu_extab*)

.exception_ranges
 *(.exception_ranges .exception_ranges*)
                0x00000000c0007000                . = DATA_SEGMENT_ALIGN (CONSTANT (MAXPAGESIZE), CONSTANT (COMMONPAGESIZE))

.eh_frame
 *(.eh_frame)
 *(.eh_frame.*)

.gnu_extab
 *(.gnu_extab)

.gcc_except_table
 *(.gcc_except_table .gcc_except_table.*)

.exception_ranges
 *(.exception_ranges .exception_ranges*)

.tdata
 *(.tdata .tdata.* .gnu.linkonce.td.*)

.tbss
 *(.tbss .tbss.* .gnu.linkonce.tb.*)
 *(.tcommon)

.preinit_array  0x00000000c0007000        0x0
                [!provide]                        PROVIDE (__preinit_array_start, .)
 *(.preinit_array)
                [!provide]                        PROVIDE (__preinit_array_end, .)

.init_array     0x00000000c0007000        0x0
                [!provide]                        PROVIDE (__init_array_start, .)
 *(SORT(.init_array.*) SORT(.ctors.*))
 *(.init_array EXCLUDE_FILE(*crtend?.o *crtend.o *crtbegin?.o *crtbegin.o) .ctors)
                [!provide]                        PROVIDE (__init_array_end, .)

.fini_array     0x00000000c0007000        0x0
                [!provide]                        PROVIDE (__fini_array_start, .)
 *(SORT(.fini_array.*) SORT(.dtors.*))
 *(.fini_array EXCLUDE_FILE(*crtend?.o *crtend.o *crtbegin?.o *crtbegin.o) .dtors)
                [!provide]                        PROVIDE (__fini_array_end, .)

.ctors
 *crtbegin.o(.ctors)
 *crtbegin?.o(.ctors)
 *(EXCLUDE_FILE(*crtend?.o *crtend.o) .ctors)
 *(SORT(.ctors.*))
 *(.ctors)

.dtors
 *crtbegin.o(.dtors)
 *crtbegin?.o(.dtors)
 *(EXCLUDE_FILE(*crtend?.o *crtend.o) .dtors)
 *(SORT(.dtors.*))
 *(.dtors)

.jcr
 *(.jcr)

.data.rel.ro
 *(.data.rel.ro.local* .gnu.linkonce.d.rel.ro.local.*)
 *(.data.rel.ro .data.rel.ro.* .gnu.linkonce.d.rel.ro.*)

.dynamic
 *(.dynamic)

.got            0x00000000c0007000        0x0
 *(.got)
 .got           0x00000000c0007000        0x0 build/main.o
 *(.igot)
                0x00000000c0007ff4                . = DATA_SEGMENT_RELRO_END (., (SIZEOF (.got.plt) >= 0xc)?0xc:0x0)

.got.plt        0x00000000c0007000        0xc
 *(.got.plt)
 .got.plt       0x00000000c0007000        0xc build/main.o
                0x00000000c0007000                _GLOBAL_OFFSET_TABLE_
 *(.igot.plt)

.data           0x00000000c000700c       0xdc
 *(.data .data.* .gnu.linkonce.d.*)
 .data          0x00000000c000700c        0x0 build/main.o
 .data          0x00000000c000700c        0x0 build/init.o
 .data          0x00000000c000700c        0x0 build/interrupt.o
 .data          0x00000000c000700c        0x0 build/timer.o
 .data          0x00000000c000700c       0xd2 build/kernel.o
                0x00000000c000701e                intr_entry_table
 *fill*         0x00000000c00070de        0x2 
 .data          0x00000000c00070e0        0x8 build/print.o
 .data          0x00000000c00070e8        0x0 build/bitmap.o
 .data          0x00000000c00070e8        0x0 build/memory.o
 .data          0x00000000c00070e8        0x0 build/string.o
 .data          0x00000000c00070e8        0x0 build/debug.o
 .data          0x00000000c00070e8        0x0 build/thread.o
 .data          0x00000000c00070e8        0x0 build/list.o
 .data          0x00000000c00070e8        0x0 build/sync.o
 .data          0x00000000c00070e8        0x0 build/console.o
 .data          0x00000000c00070e8        0x0 build/keyboard.o

.data1
 *(.data1)
                0x00000000c00070e8                _edata = .
                [!provide]                        PROVIDE (edata, .)
                0x00000000c00070e8                . = .
                0x00000000c00070e8                __bss_start = .

.bss            0x00000000c0007100      0x374
 *(.dynbss)
 *(.bss .bss.* .gnu.linkonce.b.*)
 .bss           0x00000000c0007100        0x0 build/main.o
 .bss           0x00000000c0007100        0x0 build/init.o
 .bss           0x00000000c0007100      0x180 build/interrupt.o
 .bss           0x00000000c0007280        0x0 build/timer.o
 .bss           0x00000000c0007280        0x0 build/bitmap.o
 .bss           0x00000000c0007280        0x0 build/memory.o
 .bss           0x00000000c0007280        0x0 build/string.o
 .bss           0x00000000c0007280        0x0 build/debug.o
 .bss           0x00000000c0007280        0x4 build/thread.o
 .bss           0x00000000c0007284        0x0 build/list.o
 .bss           0x00000000c0007284        0x0 build/sync.o
 .bss           0x00000000c0007284       0x1c build/console.o
 .bss           0x00000000c00072a0        0x0 build/keyboard.o
 *(COMMON)
 COMMON         0x00000000c00072a0      0x180 build/interrupt.o
                0x00000000c00072a0                intr_name
                0x00000000c0007360                idt_table
 COMMON         0x00000000c0007420        0x4 build/timer.o
                0x00000000c0007420                ticks
 COMMON         0x00000000c0007424       0x2c build/memory.o
                0x00000000c0007424                user_pool
                0x00000000c0007434                kernel_addr
                0x00000000c0007440                kernel_pool
 COMMON         0x00000000c0007450       0x24 build/thread.o
                0x00000000c0007450                thread_ready_list
                0x00000000c0007460                thread_all_list
                0x00000000c0007470                main_thread
                0x00000000c0007474                . = ALIGN ((. != 0x0)?0x4:0x1)
                0x00000000c0007474                . = ALIGN (0x4)
                0x00000000c0007474                . = SEGMENT_START ("ldata-segment", .)
                0x00000000c0007474                . = ALIGN (0x4)
                0x00000000c0007474                _end = .
                [!provide]                        PROVIDE (end, .)
                0x00000000c0007474                . = DATA_SEGMENT_END (.)

.stab
 *(.stab)

.stabstr
 *(.stabstr)

.stab.excl
 *(.stab.excl)

.stab.exclstr
 *(.stab.exclstr)

.stab.index
 *(.stab.index)

.stab.indexstr
 *(.stab.indexstr)

.comment        0x0000000000000000       0x2d
 *(.comment)
 .comment       0x0000000000000000       0x2d build/main.o
                                         0x2e (size before relaxing)
 .comment       0x000000000000002d       0x2e build/init.o
 .comment       0x000000000000002d       0x2e build/interrupt.o
 .comment       0x000000000000002d       0x2e build/timer.o
 .comment       0x000000000000002d       0x2e build/bitmap.o
 .comment       0x000000000000002d       0x2e build/memory.o
 .comment       0x000000000000002d       0x2e build/string.o
 .comment       0x000000000000002d       0x2e build/debug.o
 .comment       0x000000000000002d       0x2e build/thread.o
 .comment       0x000000000000002d       0x2e build/list.o
 .comment       0x000000000000002d       0x2e build/sync.o
 .comment       0x000000000000002d       0x2e build/console.o
 .comment       0x000000000000002d       0x2e build/keyboard.o

.debug
 *(.debug)

.line
 *(.line)

.debug_srcinfo
 *(.debug_srcinfo)

.debug_sfnames
 *(.debug_sfnames)

.debug_aranges
 *(.debug_aranges)

.debug_pubnames
 *(.debug_pubnames)

.debug_info
 *(.debug_info .gnu.linkonce.wi.*)

.debug_abbrev
 *(.debug_abbrev)

.debug_line
 *(.debug_line .debug_line.* .debug_line_end)

.debug_frame
 *(.debug_frame)

.debug_str
 *(.debug_str)

.debug_loc
 *(.debug_loc)

.debug_macinfo
 *(.debug_macinfo)

.debug_weaknames
 *(.debug_weaknames)

.debug_funcnames
 *(.debug_funcnames)

.debug_typenames
 *(.debug_typenames)

.debug_varnames
 *(.debug_varnames)

.debug_pubtypes
 *(.debug_pubtypes)

.debug_ranges
 *(.debug_ranges)

.debug_macro
 *(.debug_macro)

.debug_addr
 *(.debug_addr)

.gnu.attributes
 *(.gnu.attributes)

/DISCARD/
 *(.note.GNU-stack)
 *(.gnu_debuglink)
 *(.gnu.lto_*)
OUTPUT(build/kernel.bin elf32-i386)
